target datalayout = "e-m:e-p270:32:32-p271:32:32-p272:64:64-i64:64-i128:128-f80:128-n8:16:32:64-S128"
target triple = "x86_64-pc-linux-gnu"

%struct._zend_ptr_stack = type { i32, i32, ptr, ptr, i8 }

; Function Attrs: nounwind uwtable
define void @zend_ptr_stack_apply(ptr noundef %0, ptr noundef %1) #0 {
  %3 = alloca ptr, align 8
  %4 = alloca ptr, align 8
  %5 = alloca i32, align 4
  store ptr %0, ptr %3, align 8
  store ptr %1, ptr %4, align 8
  %6 = load ptr, ptr %3, align 8
  %7 = getelementptr inbounds %struct._zend_ptr_stack, ptr %6, i32 0, i32 0
  %8 = load i32, ptr %7, align 8
  store i32 %8, ptr %5, align 4
  br label %9

9:                                                ; preds = %13, %2
  %10 = load i32, ptr %5, align 4
  %11 = add nsw i32 %10, -1
  store i32 %11, ptr %5, align 4
  %12 = icmp sge i32 %11, 0
  br i1 %12, label %13, label %22

13:                                               ; preds = %9
  %14 = load ptr, ptr %4, align 8
  %15 = load ptr, ptr %3, align 8
  %16 = getelementptr inbounds %struct._zend_ptr_stack, ptr %15, i32 0, i32 2
  %17 = load ptr, ptr %16, align 8
  %18 = load i32, ptr %5, align 4
  %19 = sext i32 %18 to i64
  %20 = getelementptr inbounds ptr, ptr %17, i64 %19
  %21 = load ptr, ptr %20, align 8
  call void %14(ptr noundef %21)
  br label %9

22:                                               ; preds = %9
  ret void
}