; Function Attrs: nounwind uwtable
define void @zend_ptr_stack_apply(ptr nocapture noundef readonly %0, ptr nocapture noundef readonly %1) local_unnamed_addr #1 {
  %3 = load i32, ptr %0, align 8
  %4 = icmp sgt i32 %3, 0
  br i1 %4, label %.lr.ph, label %._crit_edge

.lr.ph:                                           ; preds = %2
  %5 = getelementptr inbounds i8, ptr %0, i64 8
  %6 = zext nneg i32 %3 to i64
  br label %7

7:                                                ; preds = %.lr.ph, %7
  %indvars.iv = phi i64 [ %6, %.lr.ph ], [ %indvars.iv.next, %7 ]
  %indvars.iv.next = add nsw i64 %indvars.iv, -1
  %8 = load ptr, ptr %5, align 8
  %9 = getelementptr inbounds ptr, ptr %8, i64 %indvars.iv.next
  %10 = load ptr, ptr %9, align 8
  tail call void %1(ptr noundef %10) #9
  %11 = icmp ugt i64 %indvars.iv, 1
  br i1 %11, label %7, label %._crit_edge

._crit_edge:                                      ; preds = %7, %2
  ret void
}